; Function Attrs: inlinehint mustprogress nofree norecurse nosync nounwind sspstrong willreturn memory(read, inaccessiblemem: none) uwtable
define internal fastcc i64 @rb_array_len(i64 noundef %0) unnamed_addr #5 {
  %2 = inttoptr i64 %0 to ptr
  %3 = load i64, ptr %2, align 8, !tbaa !7
  %4 = and i64 %3, 8192
  %.not = icmp eq i64 %4, 0
  br i1 %.not, label %8, label %5

5:                                                ; preds = %1
  %6 = lshr i64 %3, 15
  %7 = and i64 %6, 127
  br label %11

8:                                                ; preds = %1
  %9 = getelementptr inbounds nuw i8, ptr %2, i64 16
  %10 = load i64, ptr %9, align 8, !tbaa !12
  br label %11

11:                                               ; preds = %8, %5
  %.0 = phi i64 [ %7, %5 ], [ %10, %8 ]
  ret i64 %.0
}